((lp0
S'Bergen'
p1
aS'Hammerfest'
p2
aS'Kirkenes'
p3
aS'Kristiansand'
p4
aS'Lillehammer'
p5
aS'Oslo'
p6
aS'Stavanger'
p7
aS'Troms\xf8'
p8
aS'Trondheim'
p9
aS'\xc5lesund'
p10
aS'Vinje'
p11
aS'Fl\xe5m'
p12
aS'Sogndal'
p13
aS'Vang'
p14
a(lp15
(lp16
I0
aI2196
aI2258
aI439
aI440
aI496
aI207
aI1808
aI662
aI432
aI274
aI167
aI219
aI278
aa(lp17
I2170
aI0
aI480
aI2191
aI1813
aI1870
aI2404
aI377
aI1537
aI1834
aI2100
aI2034
aI1951
aI1918
aa(lp18
I2232
aI480
aI0
aI2222
aI1844
aI1901
aI2435
aI806
aI1598
aI1895
aI2131
aI2095
aI2012
aI1980
aa(lp19
I439
aI2193
aI2224
aI0
aI503
aI321
aI231
aI1962
aI816
aI820
aI266
aI487
aI584
aI521
aa(lp20
I440
aI1827
aI1848
aI505
aI0
aI184
aI546
aI1484
aI338
aI381
aI363
aI277
aI279
aI162
aa(lp21
I496
aI1872
aI1903
aI321
aI181
aI0
aI535
aI1640
aI495
aI562
aI230
aI333
aI333
aI236
aa(lp22
I207
aI2407
aI2437
aI231
aI546
aI534
aI0
aI1975
aI830
aI638
aI250
aI343
aI395
aI454
aa(lp23
I1782
aI378
aI806
aI1962
aI1484
aI1641
aI1962
aI0
aI1148
aI1445
aI1820
aI1645
aI1562
aI1530
aa(lp24
I636
aI1537
aI1599
aI817
aI339
aI496
aI816
aI1148
aI0
aI300
aI674
aI500
aI417
aI384
aa(lp25
I432
aI1834
aI1896
aI820
aI381
aI563
aI638
aI1445
aI300
aI0
aI601
aI347
aI275
aI355
aa(lp26
I275
aI2103
aI2134
aI244
aI363
aI230
aI279
aI1821
aI675
aI601
aI0
aI275
aI327
aI348
aa(lp27
I167
aI2033
aI2095
aI517
aI277
aI333
aI348
aI1645
aI499
aI347
aI275
aI0
aI72
aI115
aa(lp28
I219
aI1951
aI2012
aI585
aI279
aI334
aI400
aI1562
aI417
aI275
aI327
aI72
aI0
aI117
aa(lp29
I278
aI1918
aI1980
aI521
aI162
aI237
aI459
aI1529
aI384
aI355
aI347
aI115
aI117
aI0
aatp30
.